target datalayout = "e-m:e-p270:32:32-p271:32:32-p272:64:64-i64:64-i128:128-f80:128-n8:16:32:64-S128"
target triple = "x86_64-pc-linux-gnu"

%struct.test_fixture = type { ptr, ptr, i32, i32, i32, ptr, i32, ptr }

@.str.14 = private unnamed_addr constant [31 x i8] c"../openssl/test/cmp_msg_test.c\00", align 1
@.str.41 = private unnamed_addr constant [21 x i8] c"test_cmp_create_genm\00", align 1
@.str.51 = private unnamed_addr constant [25 x i8] c"valid_asn1_encoding(msg)\00", align 1
@stderr = external global ptr, align 8
@.str.73 = private unnamed_addr constant [3 x i8] c"iv\00", align 1
@.str.74 = private unnamed_addr constant [51 x i8] c"OSSL_CMP_CTX_push0_genm_ITAV(fixture->cmp_ctx, iv)\00", align 1
@.str.75 = private unnamed_addr constant [44 x i8] c"msg = (ossl_cmp_genm_new(fixture->cmp_ctx))\00", align 1

; Function Attrs: nounwind uwtable
define internal i32 @execute_genm_create_test(ptr noundef %0) #0 {
  %2 = alloca ptr, align 8
  %3 = alloca ptr, align 8
  %4 = alloca i32, align 4
  store ptr %0, ptr %2, align 8, !tbaa !17
  br label %5

5:                                                ; preds = %1
  call void @llvm.lifetime.start.p0(i64 8, ptr %3) #4
  store ptr null, ptr %3, align 8, !tbaa !38
  call void @llvm.lifetime.start.p0(i64 4, ptr %4) #4
  %6 = load ptr, ptr %2, align 8, !tbaa !17
  %7 = getelementptr inbounds nuw %struct.test_fixture, ptr %6, i32 0, i32 6
  %8 = load i32, ptr %7, align 8, !tbaa !27
  %9 = icmp ne i32 %8, 0
  br i1 %9, label %10, label %27

10:                                               ; preds = %5
  %11 = load ptr, ptr %2, align 8, !tbaa !17
  %12 = getelementptr inbounds nuw %struct.test_fixture, ptr %11, i32 0, i32 1
  %13 = load ptr, ptr %12, align 8, !tbaa !28
  %14 = call ptr @ossl_cmp_genm_new(ptr noundef %13)
  store ptr %14, ptr %3, align 8, !tbaa !38
  %15 = call i32 @test_ptr(ptr noundef @.str.14, i32 noundef 116, ptr noundef @.str.75, ptr noundef %14)
  %16 = icmp ne i32 %15, 0
  br i1 %16, label %17, label %24

17:                                               ; preds = %10
  %18 = load ptr, ptr %3, align 8, !tbaa !38
  %19 = call i32 @valid_asn1_encoding(ptr noundef %18)
  %20 = icmp ne i32 %19, 0
  %21 = zext i1 %20 to i32
  %22 = call i32 @test_true(ptr noundef @.str.14, i32 noundef 116, ptr noundef @.str.51, i32 noundef %21)
  %23 = icmp ne i32 %22, 0
  br label %24

24:                                               ; preds = %17, %10
  %25 = phi i1 [ false, %10 ], [ %23, %17 ]
  %26 = zext i1 %25 to i32
  br label %33

27:                                               ; preds = %5
  %28 = load ptr, ptr %2, align 8, !tbaa !17
  %29 = getelementptr inbounds nuw %struct.test_fixture, ptr %28, i32 0, i32 1
  %30 = load ptr, ptr %29, align 8, !tbaa !28
  %31 = call ptr @ossl_cmp_genm_new(ptr noundef %30)
  store ptr %31, ptr %3, align 8, !tbaa !38
  %32 = call i32 @test_ptr_null(ptr noundef @.str.14, i32 noundef 116, ptr noundef @.str.75, ptr noundef %31)
  br label %33

33:                                               ; preds = %27, %24
  %34 = phi i32 [ %26, %24 ], [ %32, %27 ]
  store i32 %34, ptr %4, align 4, !tbaa !19
  %35 = load ptr, ptr %3, align 8, !tbaa !38
  call void @OSSL_CMP_MSG_free(ptr noundef %35)
  %36 = load ptr, ptr @stderr, align 8, !tbaa !39
  call void @ERR_print_errors_fp(ptr noundef %36)
  %37 = load i32, ptr %4, align 4, !tbaa !19
  call void @llvm.lifetime.end.p0(i64 4, ptr %4) #4
  call void @llvm.lifetime.end.p0(i64 8, ptr %3) #4
  br label %38

38:                                               ; preds = %33
  ret i32 %37
}

; Function Attrs: nounwind uwtable
define internal void @tear_down(ptr noundef %0) #0 {
  %2 = alloca ptr, align 8
  store ptr %0, ptr %2, align 8, !tbaa !17
  %3 = load ptr, ptr %2, align 8, !tbaa !17
  %4 = getelementptr inbounds nuw %struct.test_fixture, ptr %3, i32 0, i32 1
  %5 = load ptr, ptr %4, align 8, !tbaa !28
  call void @OSSL_CMP_CTX_free(ptr noundef %5)
  %6 = load ptr, ptr %2, align 8, !tbaa !17
  %7 = getelementptr inbounds nuw %struct.test_fixture, ptr %6, i32 0, i32 5
  %8 = load ptr, ptr %7, align 8, !tbaa !37
  call void @OSSL_CMP_MSG_free(ptr noundef %8)
  %9 = load ptr, ptr %2, align 8, !tbaa !17
  %10 = getelementptr inbounds nuw %struct.test_fixture, ptr %9, i32 0, i32 7
  %11 = load ptr, ptr %10, align 8, !tbaa !30
  call void @OSSL_CMP_PKISI_free(ptr noundef %11)
  %12 = load ptr, ptr %2, align 8, !tbaa !17
  call void @CRYPTO_free(ptr noundef %12, ptr noundef @.str.14, i32 noundef 43)
  ret void
}

; Function Attrs: nounwind uwtable
define internal i32 @test_cmp_create_genm() #0 {
  %1 = alloca i32, align 4
  %2 = alloca ptr, align 8
  %3 = alloca ptr, align 8
  %4 = alloca i32, align 4
  %5 = alloca i32, align 4
  call void @llvm.lifetime.start.p0(i64 8, ptr %2) #4
  store ptr null, ptr %2, align 8, !tbaa !34
  call void @llvm.lifetime.start.p0(i64 8, ptr %3) #4
  %6 = call ptr @set_up(ptr noundef @.str.41)
  store ptr %6, ptr %3, align 8, !tbaa !17
  call void @llvm.lifetime.start.p0(i64 4, ptr %4) #4
  store i32 0, ptr %4, align 4, !tbaa !19
  %7 = load ptr, ptr %3, align 8, !tbaa !17
  %8 = icmp eq ptr %7, null
  br i1 %8, label %9, label %10

9:                                                ; preds = %0
  store i32 0, ptr %1, align 4
  store i32 1, ptr %5, align 4
  br label %40

10:                                               ; preds = %0
  %11 = load ptr, ptr %3, align 8, !tbaa !17
  %12 = getelementptr inbounds nuw %struct.test_fixture, ptr %11, i32 0, i32 6
  store i32 1, ptr %12, align 8, !tbaa !27
  %13 = call ptr @OBJ_nid2obj(i32 noundef 310)
  %14 = call ptr @OSSL_CMP_ITAV_create(ptr noundef %13, ptr noundef null)
  store ptr %14, ptr %2, align 8, !tbaa !34
  %15 = load ptr, ptr %2, align 8, !tbaa !34
  %16 = call i32 @test_ptr(ptr noundef @.str.14, i32 noundef 369, ptr noundef @.str.73, ptr noundef %15)
  %17 = icmp ne i32 %16, 0
  br i1 %17, label %18, label %28

18:                                               ; preds = %10
  %19 = load ptr, ptr %3, align 8, !tbaa !17
  %20 = getelementptr inbounds nuw %struct.test_fixture, ptr %19, i32 0, i32 1
  %21 = load ptr, ptr %20, align 8, !tbaa !28
  %22 = load ptr, ptr %2, align 8, !tbaa !34
  %23 = call i32 @OSSL_CMP_CTX_push0_genm_ITAV(ptr noundef %21, ptr noundef %22)
  %24 = icmp ne i32 %23, 0
  %25 = zext i1 %24 to i32
  %26 = call i32 @test_true(ptr noundef @.str.14, i32 noundef 370, ptr noundef @.str.74, i32 noundef %25)
  %27 = icmp ne i32 %26, 0
  br i1 %27, label %31, label %28

28:                                               ; preds = %18, %10
  %29 = load ptr, ptr %2, align 8, !tbaa !34
  call void @OSSL_CMP_ITAV_free(ptr noundef %29)
  %30 = load ptr, ptr %3, align 8, !tbaa !17
  call void @tear_down(ptr noundef %30)
  store ptr null, ptr %3, align 8, !tbaa !17
  br label %31

31:                                               ; preds = %28, %18
  %32 = load ptr, ptr %3, align 8, !tbaa !17
  %33 = icmp ne ptr %32, null
  br i1 %33, label %34, label %38

34:                                               ; preds = %31
  %35 = load ptr, ptr %3, align 8, !tbaa !17
  %36 = call i32 @execute_genm_create_test(ptr noundef %35)
  store i32 %36, ptr %4, align 4, !tbaa !19
  %37 = load ptr, ptr %3, align 8, !tbaa !17
  call void @tear_down(ptr noundef %37)
  br label %38

38:                                               ; preds = %34, %31
  %39 = load i32, ptr %4, align 4, !tbaa !19
  store i32 %39, ptr %1, align 4
  store i32 1, ptr %5, align 4
  br label %40

40:                                               ; preds = %38, %9
  call void @llvm.lifetime.end.p0(i64 4, ptr %4) #4
  call void @llvm.lifetime.end.p0(i64 8, ptr %3) #4
  call void @llvm.lifetime.end.p0(i64 8, ptr %2) #4
  %41 = load i32, ptr %1, align 4
  ret i32 %41
}