; Function Attrs: nounwind uwtable
define internal i32 @test_cmp_create_genm() #0 {
  %1 = tail call fastcc ptr @set_up(ptr noundef nonnull @.str.41)
  %2 = icmp eq ptr %1, null
  br i1 %2, label %37, label %3

3:                                                ; preds = %0
  %4 = getelementptr inbounds nuw i8, ptr %1, i64 40
  store i32 1, ptr %4, align 8, !tbaa !24
  %5 = tail call ptr @OBJ_nid2obj(i32 noundef 310) #4
  %6 = tail call ptr @OSSL_CMP_ITAV_create(ptr noundef %5, ptr noundef null) #4
  %7 = tail call i32 @test_ptr(ptr noundef nonnull @.str.14, i32 noundef 369, ptr noundef nonnull @.str.73, ptr noundef %6) #4
  %.not = icmp eq i32 %7, 0
  br i1 %.not, label %.thread, label %8

8:                                                ; preds = %3
  %9 = getelementptr inbounds nuw i8, ptr %1, i64 8
  %10 = load ptr, ptr %9, align 8, !tbaa !25
  %11 = tail call i32 @OSSL_CMP_CTX_push0_genm_ITAV(ptr noundef %10, ptr noundef %6) #4
  %12 = icmp ne i32 %11, 0
  %13 = zext i1 %12 to i32
  %14 = tail call i32 @test_true(ptr noundef nonnull @.str.14, i32 noundef 370, ptr noundef nonnull @.str.74, i32 noundef %13) #4
  %.not14 = icmp eq i32 %14, 0
  br i1 %.not14, label %.thread, label %16

.thread:                                          ; preds = %3, %8
  tail call void @OSSL_CMP_ITAV_free(ptr noundef %6) #4
  %15 = getelementptr inbounds nuw i8, ptr %1, i64 8
  br label %.sink.split

16:                                               ; preds = %8
  %17 = load i32, ptr %4, align 8, !tbaa !24
  %.not.i = icmp eq i32 %17, 0
  %18 = load ptr, ptr %9, align 8, !tbaa !25
  %19 = tail call ptr @ossl_cmp_genm_new(ptr noundef %18) #4
  br i1 %.not.i, label %29, label %20

20:                                               ; preds = %16
  %21 = tail call i32 @test_ptr(ptr noundef nonnull @.str.14, i32 noundef 116, ptr noundef nonnull @.str.75, ptr noundef %19) #4
  %.not5.i = icmp eq i32 %21, 0
  br i1 %.not5.i, label %execute_genm_create_test.exit, label %22

22:                                               ; preds = %20
  %23 = tail call i32 @valid_asn1_encoding(ptr noundef %19) #4
  %24 = icmp ne i32 %23, 0
  %25 = zext i1 %24 to i32
  %26 = tail call i32 @test_true(ptr noundef nonnull @.str.14, i32 noundef 116, ptr noundef nonnull @.str.51, i32 noundef %25) #4
  %27 = icmp ne i32 %26, 0
  %28 = zext i1 %27 to i32
  br label %execute_genm_create_test.exit

29:                                               ; preds = %16
  %30 = tail call i32 @test_ptr_null(ptr noundef nonnull @.str.14, i32 noundef 116, ptr noundef nonnull @.str.75, ptr noundef %19) #4
  br label %execute_genm_create_test.exit

execute_genm_create_test.exit:                    ; preds = %20, %22, %29
  %31 = phi i32 [ %30, %29 ], [ %28, %22 ], [ 0, %20 ]
  tail call void @OSSL_CMP_MSG_free(ptr noundef %19) #4
  %32 = load ptr, ptr @stderr, align 8, !tbaa !28
  tail call void @ERR_print_errors_fp(ptr noundef %32) #4
  br label %.sink.split

.sink.split:                                      ; preds = %execute_genm_create_test.exit, %.thread
  %.sink.in = phi ptr [ %15, %.thread ], [ %9, %execute_genm_create_test.exit ]
  %.012.ph = phi i32 [ 0, %.thread ], [ %31, %execute_genm_create_test.exit ]
  %.sink = load ptr, ptr %.sink.in, align 8, !tbaa !25
  tail call void @OSSL_CMP_CTX_free(ptr noundef %.sink) #4
  %33 = getelementptr inbounds nuw i8, ptr %1, i64 32
  %34 = load ptr, ptr %33, align 8, !tbaa !26
  tail call void @OSSL_CMP_MSG_free(ptr noundef %34) #4
  %35 = getelementptr inbounds nuw i8, ptr %1, i64 48
  %36 = load ptr, ptr %35, align 8, !tbaa !27
  tail call void @OSSL_CMP_PKISI_free(ptr noundef %36) #4
  tail call void @CRYPTO_free(ptr noundef nonnull %1, ptr noundef nonnull @.str.14, i32 noundef 43) #4
  br label %37

37:                                               ; preds = %.sink.split, %0
  %.012 = phi i32 [ 0, %0 ], [ %.012.ph, %.sink.split ]
  ret i32 %.012
}